target datalayout = "e-m:e-p270:32:32-p271:32:32-p272:64:64-i64:64-i128:128-f80:128-n8:16:32:64-S128"
target triple = "x86_64-unknown-linux-gnu"

%"class.icu_75::NFSubstitution" = type { %"class.icu_75::UObject", i32, ptr, ptr }
%"class.icu_75::UObject" = type { ptr }
%"class.icu_75::UnicodeString" = type { %"class.icu_75::Replaceable", %"union.icu_75::UnicodeString::StackBufferOrFields" }
%"class.icu_75::Replaceable" = type { %"class.icu_75::UObject" }
%"union.icu_75::UnicodeString::StackBufferOrFields" = type { %struct.anon.0, [32 x i8] }
%struct.anon.0 = type { i16, i32, i32, ptr }
%"class.icu_75::NFRuleSet" = type <{ [8 x i8], %"class.icu_75::UnicodeString", %"class.icu_75::NFRuleList", [6 x ptr], ptr, %"class.icu_75::NFRuleList", i8, i8, i8, [5 x i8] }>
%"class.icu_75::NFRuleList" = type { ptr, i32, i32 }
%"class.icu_75::ConstChar16Ptr" = type { ptr }
%"class.icu_75::FractionalPartSubstitution" = type <{ %"class.icu_75::NFSubstitution", i8, i8, [6 x i8] }>

@_ZL26gGreaterGreaterGreaterThan = internal constant [4 x i16] [i16 62, i16 62, i16 62, i16 0], align 2
@_ZL19gGreaterGreaterThan = internal constant [3 x i16] [i16 62, i16 62, i16 0], align 2

; Function Attrs: mustprogress nounwind uwtable
define linkonce_odr noundef ptr @_ZNK6icu_7514ConstChar16Ptr3getEv(ptr noundef nonnull align 8 dereferenceable(8) %this) #0 comdat align 2 {
entry:
  %this.addr = alloca ptr, align 8
  store ptr %this, ptr %this.addr, align 8
  %this1 = load ptr, ptr %this.addr, align 8
  %p_ = getelementptr inbounds %"class.icu_75::ConstChar16Ptr", ptr %this1, i32 0, i32 0
  %0 = load ptr, ptr %p_, align 8
  ret ptr %0
}

; Function Attrs: mustprogress nounwind uwtable
define linkonce_odr noundef i32 @_ZNK6icu_7513UnicodeString14getShortLengthEv(ptr noundef nonnull align 8 dereferenceable(64) %this) #0 comdat align 2 {
entry:
  %this.addr = alloca ptr, align 8
  store ptr %this, ptr %this.addr, align 8
  %this1 = load ptr, ptr %this.addr, align 8
  %fUnion = getelementptr inbounds %"class.icu_75::UnicodeString", ptr %this1, i32 0, i32 1
  %fLengthAndFlags = getelementptr inbounds %struct.anon.0, ptr %fUnion, i32 0, i32 0
  %0 = load i16, ptr %fLengthAndFlags, align 8
  %conv = sext i16 %0 to i32
  %shr = ashr i32 %conv, 5
  ret i32 %shr
}

; Function Attrs: mustprogress nounwind uwtable
define linkonce_odr noundef signext i8 @_ZNK6icu_7513UnicodeString14hasShortLengthEv(ptr noundef nonnull align 8 dereferenceable(64) %this) #0 comdat align 2 {
entry:
  %this.addr = alloca ptr, align 8
  store ptr %this, ptr %this.addr, align 8
  %this1 = load ptr, ptr %this.addr, align 8
  %fUnion = getelementptr inbounds %"class.icu_75::UnicodeString", ptr %this1, i32 0, i32 1
  %fLengthAndFlags = getelementptr inbounds %struct.anon.0, ptr %fUnion, i32 0, i32 0
  %0 = load i16, ptr %fLengthAndFlags, align 8
  %conv = sext i16 %0 to i32
  %cmp = icmp sge i32 %conv, 0
  %conv2 = zext i1 %cmp to i8
  ret i8 %conv2
}

; Function Attrs: mustprogress uwtable
define linkonce_odr noundef ptr @_ZNK6icu_7514ConstChar16PtrcvPKDsEv(ptr noundef nonnull align 8 dereferenceable(8) %this) #2 comdat align 2 {
entry:
  %this.addr = alloca ptr, align 8
  store ptr %this, ptr %this.addr, align 8
  %this1 = load ptr, ptr %this.addr, align 8
  %call = call noundef ptr @_ZNK6icu_7514ConstChar16Ptr3getEv(ptr noundef nonnull align 8 dereferenceable(8) %this1)
  ret ptr %call
}

; Function Attrs: mustprogress uwtable
define linkonce_odr noundef i32 @_ZNK6icu_7513UnicodeString6lengthEv(ptr noundef nonnull align 8 dereferenceable(64) %this) #2 comdat align 2 {
entry:
  %this.addr = alloca ptr, align 8
  store ptr %this, ptr %this.addr, align 8
  %this1 = load ptr, ptr %this.addr, align 8
  %call = call noundef signext i8 @_ZNK6icu_7513UnicodeString14hasShortLengthEv(ptr noundef nonnull align 8 dereferenceable(64) %this1)
  %tobool = icmp ne i8 %call, 0
  br i1 %tobool, label %cond.true, label %cond.false

cond.true:                                        ; preds = %entry
  %call2 = call noundef i32 @_ZNK6icu_7513UnicodeString14getShortLengthEv(ptr noundef nonnull align 8 dereferenceable(64) %this1)
  br label %cond.end

cond.false:                                       ; preds = %entry
  %fUnion = getelementptr inbounds %"class.icu_75::UnicodeString", ptr %this1, i32 0, i32 1
  %fLength = getelementptr inbounds %struct.anon.0, ptr %fUnion, i32 0, i32 1
  %0 = load i32, ptr %fLength, align 4
  br label %cond.end

cond.end:                                         ; preds = %cond.false, %cond.true
  %cond = phi i32 [ %call2, %cond.true ], [ %0, %cond.false ]
  ret i32 %cond
}

; Function Attrs: mustprogress nounwind uwtable
define linkonce_odr void @_ZN6icu_759NFRuleSet23makeIntoFractionRuleSetEv(ptr noundef nonnull align 8 dereferenceable(163) %this) #0 comdat align 2 {
entry:
  %this.addr = alloca ptr, align 8
  store ptr %this, ptr %this.addr, align 8
  %this1 = load ptr, ptr %this.addr, align 8
  %fIsFractionRuleSet = getelementptr inbounds %"class.icu_75::NFRuleSet", ptr %this1, i32 0, i32 6
  store i8 1, ptr %fIsFractionRuleSet, align 8
  ret void
}

; Function Attrs: mustprogress nounwind uwtable
define linkonce_odr void @_ZN6icu_7514ConstChar16PtrD2Ev(ptr noundef nonnull align 8 dereferenceable(8) %this) unnamed_addr #0 comdat align 2 {
entry:
  %this.addr = alloca ptr, align 8
  store ptr %this, ptr %this.addr, align 8
  %this1 = load ptr, ptr %this.addr, align 8
  %p_ = getelementptr inbounds %"class.icu_75::ConstChar16Ptr", ptr %this1, i32 0, i32 0
  %0 = load ptr, ptr %p_, align 8
  call void asm sideeffect "", "rm,~{memory},~{dirflag},~{fpsr},~{flags}"(ptr %0) #6, !srcloc !4
  ret void
}

; Function Attrs: mustprogress nounwind uwtable
define linkonce_odr noundef ptr @_ZNK6icu_7514NFSubstitution10getRuleSetEv(ptr noundef nonnull align 8 dereferenceable(32) %this) #0 comdat align 2 {
entry:
  %this.addr = alloca ptr, align 8
  store ptr %this, ptr %this.addr, align 8
  %this1 = load ptr, ptr %this.addr, align 8
  %ruleSet = getelementptr inbounds %"class.icu_75::NFSubstitution", ptr %this1, i32 0, i32 2
  %0 = load ptr, ptr %ruleSet, align 8
  ret ptr %0
}

; Function Attrs: mustprogress uwtable
define linkonce_odr noundef signext i8 @_ZNK6icu_7513UnicodeString7compareENS_14ConstChar16PtrEi(ptr noundef nonnull align 8 dereferenceable(64) %this, ptr noundef %srcChars, i32 noundef %srcLength) #2 comdat align 2 {
entry:
  %this.addr = alloca ptr, align 8
  %srcChars.indirect_addr = alloca ptr, align 8
  %srcLength.addr = alloca i32, align 4
  store ptr %this, ptr %this.addr, align 8
  store ptr %srcChars, ptr %srcChars.indirect_addr, align 8
  store i32 %srcLength, ptr %srcLength.addr, align 4
  %this1 = load ptr, ptr %this.addr, align 8
  %call = call noundef i32 @_ZNK6icu_7513UnicodeString6lengthEv(ptr noundef nonnull align 8 dereferenceable(64) %this1)
  %call2 = call noundef ptr @_ZNK6icu_7514ConstChar16PtrcvPKDsEv(ptr noundef nonnull align 8 dereferenceable(8) %srcChars)
  %0 = load i32, ptr %srcLength.addr, align 4
  %call3 = call noundef signext i8 @_ZNK6icu_7513UnicodeString9doCompareEiiPKDsii(ptr noundef nonnull align 8 dereferenceable(64) %this1, i32 noundef 0, i32 noundef %call, ptr noundef %call2, i32 noundef 0, i32 noundef %0)
  ret i8 %call3
}

; Function Attrs: mustprogress nounwind uwtable
define linkonce_odr void @_ZN6icu_7514ConstChar16PtrC2EPKDs(ptr noundef nonnull align 8 dereferenceable(8) %this, ptr noundef %p) unnamed_addr #0 comdat align 2 {
entry:
  %this.addr = alloca ptr, align 8
  %p.addr = alloca ptr, align 8
  store ptr %this, ptr %this.addr, align 8
  store ptr %p, ptr %p.addr, align 8
  %this1 = load ptr, ptr %this.addr, align 8
  %p_ = getelementptr inbounds %"class.icu_75::ConstChar16Ptr", ptr %this1, i32 0, i32 0
  %0 = load ptr, ptr %p.addr, align 8
  store ptr %0, ptr %p_, align 8
  ret void
}

; Function Attrs: mustprogress uwtable
define void @_ZN6icu_7526FractionalPartSubstitutionC2EiPKNS_9NFRuleSetERKNS_13UnicodeStringER10UErrorCode(ptr noundef nonnull align 8 dereferenceable(34) %this, i32 noundef %_pos, ptr noundef %_ruleSet, ptr noundef nonnull align 8 dereferenceable(64) %description, ptr noundef nonnull align 4 dereferenceable(4) %status) unnamed_addr #2 align 2 personality ptr @__gxx_personality_v0 {
entry:
  %this.addr = alloca ptr, align 8
  %_pos.addr = alloca i32, align 4
  %_ruleSet.addr = alloca ptr, align 8
  %description.addr = alloca ptr, align 8
  %status.addr = alloca ptr, align 8
  %agg.tmp = alloca %"class.icu_75::ConstChar16Ptr", align 8
  %exn.slot = alloca ptr, align 8
  %ehselector.slot = alloca i32, align 4
  %agg.tmp4 = alloca %"class.icu_75::ConstChar16Ptr", align 8
  %cleanup.cond = alloca i1, align 1
  %agg.tmp18 = alloca %"class.icu_75::ConstChar16Ptr", align 8
  store ptr %this, ptr %this.addr, align 8
  store i32 %_pos, ptr %_pos.addr, align 4
  store ptr %_ruleSet, ptr %_ruleSet.addr, align 8
  store ptr %description, ptr %description.addr, align 8
  store ptr %status, ptr %status.addr, align 8
  %this1 = load ptr, ptr %this.addr, align 8
  %0 = load i32, ptr %_pos.addr, align 4
  %1 = load ptr, ptr %_ruleSet.addr, align 8
  %2 = load ptr, ptr %description.addr, align 8
  %3 = load ptr, ptr %status.addr, align 8
  call void @_ZN6icu_7514NFSubstitutionC2EiPKNS_9NFRuleSetERKNS_13UnicodeStringER10UErrorCode(ptr noundef nonnull align 8 dereferenceable(32) %this1, i32 noundef %0, ptr noundef %1, ptr noundef nonnull align 8 dereferenceable(64) %2, ptr noundef nonnull align 4 dereferenceable(4) %3)
  store ptr getelementptr inbounds ({ [17 x ptr] }, ptr @_ZTVN6icu_7526FractionalPartSubstitutionE, i32 0, i32 0, i32 2), ptr %this1, align 8
  %byDigits = getelementptr inbounds %"class.icu_75::FractionalPartSubstitution", ptr %this1, i32 0, i32 1
  store i8 0, ptr %byDigits, align 8
  %useSpaces = getelementptr inbounds %"class.icu_75::FractionalPartSubstitution", ptr %this1, i32 0, i32 2
  store i8 1, ptr %useSpaces, align 1
  %4 = load ptr, ptr %description.addr, align 8
  store i1 false, ptr %cleanup.cond, align 1
  invoke void @_ZN6icu_7514ConstChar16PtrC2EPKDs(ptr noundef nonnull align 8 dereferenceable(8) %agg.tmp, ptr noundef @_ZL19gGreaterGreaterThan)
          to label %invoke.cont unwind label %lpad

invoke.cont:                                      ; preds = %entry
  %call = invoke noundef signext i8 @_ZNK6icu_7513UnicodeString7compareENS_14ConstChar16PtrEi(ptr noundef nonnull align 8 dereferenceable(64) %4, ptr noundef %agg.tmp, i32 noundef 2)
          to label %invoke.cont3 unwind label %lpad2

invoke.cont3:                                     ; preds = %invoke.cont
  %conv = sext i8 %call to i32
  %cmp = icmp eq i32 0, %conv
  br i1 %cmp, label %lor.end, label %lor.lhs.false

lor.lhs.false:                                    ; preds = %invoke.cont3
  %5 = load ptr, ptr %description.addr, align 8
  invoke void @_ZN6icu_7514ConstChar16PtrC2EPKDs(ptr noundef nonnull align 8 dereferenceable(8) %agg.tmp4, ptr noundef @_ZL26gGreaterGreaterGreaterThan)
          to label %invoke.cont5 unwind label %lpad2

invoke.cont5:                                     ; preds = %lor.lhs.false
  store i1 true, ptr %cleanup.cond, align 1
  %call8 = invoke noundef signext i8 @_ZNK6icu_7513UnicodeString7compareENS_14ConstChar16PtrEi(ptr noundef nonnull align 8 dereferenceable(64) %5, ptr noundef %agg.tmp4, i32 noundef 3)
          to label %invoke.cont7 unwind label %lpad6

invoke.cont7:                                     ; preds = %invoke.cont5
  %conv9 = sext i8 %call8 to i32
  %cmp10 = icmp eq i32 0, %conv9
  br i1 %cmp10, label %lor.end, label %lor.rhs

lor.rhs:                                          ; preds = %invoke.cont7
  %6 = load ptr, ptr %_ruleSet.addr, align 8
  %call12 = invoke noundef ptr @_ZNK6icu_7514NFSubstitution10getRuleSetEv(ptr noundef nonnull align 8 dereferenceable(32) %this1)
          to label %invoke.cont11 unwind label %lpad6

invoke.cont11:                                    ; preds = %lor.rhs
  %cmp13 = icmp eq ptr %6, %call12
  br label %lor.end

lor.end:                                          ; preds = %invoke.cont11, %invoke.cont7, %invoke.cont3
  %7 = phi i1 [ true, %invoke.cont7 ], [ true, %invoke.cont3 ], [ %cmp13, %invoke.cont11 ]
  %cleanup.is_active = load i1, ptr %cleanup.cond, align 1
  br i1 %cleanup.is_active, label %cleanup.action, label %cleanup.done

cleanup.action:                                   ; preds = %lor.end
  call void @_ZN6icu_7514ConstChar16PtrD2Ev(ptr noundef nonnull align 8 dereferenceable(8) %agg.tmp4) #6
  br label %cleanup.done

cleanup.done:                                     ; preds = %cleanup.action, %lor.end
  call void @_ZN6icu_7514ConstChar16PtrD2Ev(ptr noundef nonnull align 8 dereferenceable(8) %agg.tmp) #6
  br i1 %7, label %if.then, label %if.else

if.then:                                          ; preds = %cleanup.done
  %byDigits17 = getelementptr inbounds %"class.icu_75::FractionalPartSubstitution", ptr %this1, i32 0, i32 1
  store i8 1, ptr %byDigits17, align 8
  %8 = load ptr, ptr %description.addr, align 8
  invoke void @_ZN6icu_7514ConstChar16PtrC2EPKDs(ptr noundef nonnull align 8 dereferenceable(8) %agg.tmp18, ptr noundef @_ZL26gGreaterGreaterGreaterThan)
          to label %invoke.cont19 unwind label %lpad

invoke.cont19:                                    ; preds = %if.then
  %call22 = invoke noundef signext i8 @_ZNK6icu_7513UnicodeString7compareENS_14ConstChar16PtrEi(ptr noundef nonnull align 8 dereferenceable(64) %8, ptr noundef %agg.tmp18, i32 noundef 3)
          to label %invoke.cont21 unwind label %lpad20

invoke.cont21:                                    ; preds = %invoke.cont19
  %conv23 = sext i8 %call22 to i32
  %cmp24 = icmp eq i32 0, %conv23
  call void @_ZN6icu_7514ConstChar16PtrD2Ev(ptr noundef nonnull align 8 dereferenceable(8) %agg.tmp18) #6
  br i1 %cmp24, label %if.then26, label %if.end

if.then26:                                        ; preds = %invoke.cont21
  %useSpaces27 = getelementptr inbounds %"class.icu_75::FractionalPartSubstitution", ptr %this1, i32 0, i32 2
  store i8 0, ptr %useSpaces27, align 1
  br label %if.end

lpad:                                             ; preds = %invoke.cont28, %if.else, %if.then, %entry
  %9 = landingpad { ptr, i32 }
          cleanup
  %10 = extractvalue { ptr, i32 } %9, 0
  store ptr %10, ptr %exn.slot, align 8
  %11 = extractvalue { ptr, i32 } %9, 1
  store i32 %11, ptr %ehselector.slot, align 4
  br label %ehcleanup32

lpad2:                                            ; preds = %lor.lhs.false, %invoke.cont
  %12 = landingpad { ptr, i32 }
          cleanup
  %13 = extractvalue { ptr, i32 } %12, 0
  store ptr %13, ptr %exn.slot, align 8
  %14 = extractvalue { ptr, i32 } %12, 1
  store i32 %14, ptr %ehselector.slot, align 4
  br label %ehcleanup

lpad6:                                            ; preds = %lor.rhs, %invoke.cont5
  %15 = landingpad { ptr, i32 }
          cleanup
  %16 = extractvalue { ptr, i32 } %15, 0
  store ptr %16, ptr %exn.slot, align 8
  %17 = extractvalue { ptr, i32 } %15, 1
  store i32 %17, ptr %ehselector.slot, align 4
  %cleanup.is_active14 = load i1, ptr %cleanup.cond, align 1
  br i1 %cleanup.is_active14, label %cleanup.action15, label %cleanup.done16

cleanup.action15:                                 ; preds = %lpad6
  call void @_ZN6icu_7514ConstChar16PtrD2Ev(ptr noundef nonnull align 8 dereferenceable(8) %agg.tmp4) #6
  br label %cleanup.done16

cleanup.done16:                                   ; preds = %cleanup.action15, %lpad6
  br label %ehcleanup

ehcleanup:                                        ; preds = %cleanup.done16, %lpad2
  call void @_ZN6icu_7514ConstChar16PtrD2Ev(ptr noundef nonnull align 8 dereferenceable(8) %agg.tmp) #6
  br label %ehcleanup32

lpad20:                                           ; preds = %invoke.cont19
  %18 = landingpad { ptr, i32 }
          cleanup
  %19 = extractvalue { ptr, i32 } %18, 0
  store ptr %19, ptr %exn.slot, align 8
  %20 = extractvalue { ptr, i32 } %18, 1
  store i32 %20, ptr %ehselector.slot, align 4
  call void @_ZN6icu_7514ConstChar16PtrD2Ev(ptr noundef nonnull align 8 dereferenceable(8) %agg.tmp18) #6
  br label %ehcleanup32

if.end:                                           ; preds = %if.then26, %invoke.cont21
  br label %if.end31

if.else:                                          ; preds = %cleanup.done
  %call29 = invoke noundef ptr @_ZNK6icu_7514NFSubstitution10getRuleSetEv(ptr noundef nonnull align 8 dereferenceable(32) %this1)
          to label %invoke.cont28 unwind label %lpad

invoke.cont28:                                    ; preds = %if.else
  invoke void @_ZN6icu_759NFRuleSet23makeIntoFractionRuleSetEv(ptr noundef nonnull align 8 dereferenceable(163) %call29)
          to label %invoke.cont30 unwind label %lpad

invoke.cont30:                                    ; preds = %invoke.cont28
  br label %if.end31

if.end31:                                         ; preds = %invoke.cont30, %if.end
  ret void

ehcleanup32:                                      ; preds = %lpad20, %ehcleanup, %lpad
  call void @_ZN6icu_7514NFSubstitutionD2Ev(ptr noundef nonnull align 8 dereferenceable(32) %this1) #6
  br label %eh.resume

eh.resume:                                        ; preds = %ehcleanup32
  %exn = load ptr, ptr %exn.slot, align 8
  %sel = load i32, ptr %ehselector.slot, align 4
  %lpad.val = insertvalue { ptr, i32 } poison, ptr %exn, 0
  %lpad.val33 = insertvalue { ptr, i32 } %lpad.val, i32 %sel, 1
  resume { ptr, i32 } %lpad.val33
}