; Function Attrs: mustprogress uwtable
define void @_ZN6icu_7526FractionalPartSubstitutionC2EiPKNS_9NFRuleSetERKNS_13UnicodeStringER10UErrorCode(ptr noundef nonnull align 8 dereferenceable(34) %this, i32 noundef %_pos, ptr noundef %_ruleSet, ptr noundef nonnull align 8 dereferenceable(64) %description, ptr noundef nonnull align 4 dereferenceable(4) %status) unnamed_addr #2 align 2 personality ptr @__gxx_personality_v0 {
entry:
  tail call void @_ZN6icu_7514NFSubstitutionC2EiPKNS_9NFRuleSetERKNS_13UnicodeStringER10UErrorCode(ptr noundef nonnull align 8 dereferenceable(32) %this, i32 noundef %_pos, ptr noundef %_ruleSet, ptr noundef nonnull align 8 dereferenceable(64) %description, ptr noundef nonnull align 4 dereferenceable(4) %status)
  store ptr getelementptr inbounds ({ [17 x ptr] }, ptr @_ZTVN6icu_7526FractionalPartSubstitutionE, i64 0, i32 0, i64 2), ptr %this, align 8
  %byDigits = getelementptr inbounds i8, ptr %this, i64 32
  store i8 0, ptr %byDigits, align 8
  %useSpaces = getelementptr inbounds i8, ptr %this, i64 33
  store i8 1, ptr %useSpaces, align 1
  %fUnion.i.i.i = getelementptr inbounds i8, ptr %description, i64 8
  %0 = load i16, ptr %fUnion.i.i.i, align 8
  %cmp.i.i.i = icmp slt i16 %0, 0
  %1 = ashr i16 %0, 5
  %shr.i.i.i = sext i16 %1 to i32
  %fLength.i.i = getelementptr inbounds i8, ptr %description, i64 12
  %2 = load i32, ptr %fLength.i.i, align 4
  %cond.i.i = select i1 %cmp.i.i.i, i32 %2, i32 %shr.i.i.i
  %call3.i8 = invoke noundef signext i8 @_ZNK6icu_7513UnicodeString9doCompareEiiPKDsii(ptr noundef nonnull align 8 dereferenceable(64) %description, i32 noundef 0, i32 noundef %cond.i.i, ptr noundef nonnull @_ZL19gGreaterGreaterThan, i32 noundef 0, i32 noundef 2)
          to label %invoke.cont3 unwind label %lpad2

invoke.cont3:                                     ; preds = %entry
  %cmp.not = icmp eq i8 %call3.i8, 0
  br i1 %cmp.not, label %cleanup.done.thread, label %lor.lhs.false

cleanup.done.thread:                              ; preds = %invoke.cont3
  tail call void asm sideeffect "", "rm,~{memory},~{dirflag},~{fpsr},~{flags}"(ptr nonnull @_ZL19gGreaterGreaterThan) #11, !srcloc !7
  br label %if.then

lor.lhs.false:                                    ; preds = %invoke.cont3
  %3 = load i16, ptr %fUnion.i.i.i, align 8
  %cmp.i.i.i10 = icmp slt i16 %3, 0
  %4 = ashr i16 %3, 5
  %shr.i.i.i11 = sext i16 %4 to i32
  %5 = load i32, ptr %fLength.i.i, align 4
  %cond.i.i13 = select i1 %cmp.i.i.i10, i32 %5, i32 %shr.i.i.i11
  %call3.i14 = invoke noundef signext i8 @_ZNK6icu_7513UnicodeString9doCompareEiiPKDsii(ptr noundef nonnull align 8 dereferenceable(64) %description, i32 noundef 0, i32 noundef %cond.i.i13, ptr noundef nonnull @_ZL26gGreaterGreaterGreaterThan, i32 noundef 0, i32 noundef 3)
          to label %invoke.cont7 unwind label %lpad6

invoke.cont7:                                     ; preds = %lor.lhs.false
  %cmp10 = icmp eq i8 %call3.i14, 0
  %ruleSet.i = getelementptr inbounds i8, ptr %this, i64 16
  %6 = load ptr, ptr %ruleSet.i, align 8
  %cmp13 = icmp eq ptr %6, %_ruleSet
  %.ph = select i1 %cmp10, i1 true, i1 %cmp13
  tail call void asm sideeffect "", "rm,~{memory},~{dirflag},~{fpsr},~{flags}"(ptr nonnull @_ZL26gGreaterGreaterGreaterThan) #11, !srcloc !7
  tail call void asm sideeffect "", "rm,~{memory},~{dirflag},~{fpsr},~{flags}"(ptr nonnull @_ZL19gGreaterGreaterThan) #11, !srcloc !7
  br i1 %.ph, label %if.then, label %if.else

if.then:                                          ; preds = %cleanup.done.thread, %invoke.cont7
  store i8 1, ptr %byDigits, align 8
  %7 = load i16, ptr %fUnion.i.i.i, align 8
  %cmp.i.i.i17 = icmp slt i16 %7, 0
  %8 = ashr i16 %7, 5
  %shr.i.i.i18 = sext i16 %8 to i32
  %9 = load i32, ptr %fLength.i.i, align 4
  %cond.i.i20 = select i1 %cmp.i.i.i17, i32 %9, i32 %shr.i.i.i18
  %call3.i21 = invoke noundef signext i8 @_ZNK6icu_7513UnicodeString9doCompareEiiPKDsii(ptr noundef nonnull align 8 dereferenceable(64) %description, i32 noundef 0, i32 noundef %cond.i.i20, ptr noundef nonnull @_ZL26gGreaterGreaterGreaterThan, i32 noundef 0, i32 noundef 3)
          to label %invoke.cont21 unwind label %lpad20

invoke.cont21:                                    ; preds = %if.then
  %cmp24 = icmp eq i8 %call3.i21, 0
  tail call void asm sideeffect "", "rm,~{memory},~{dirflag},~{fpsr},~{flags}"(ptr nonnull @_ZL26gGreaterGreaterGreaterThan) #11, !srcloc !7
  br i1 %cmp24, label %if.then26, label %if.end31

if.then26:                                        ; preds = %invoke.cont21
  store i8 0, ptr %useSpaces, align 1
  br label %if.end31

lpad2:                                            ; preds = %entry
  %10 = landingpad { ptr, i32 }
          cleanup
  br label %ehcleanup

lpad6:                                            ; preds = %lor.lhs.false
  %11 = landingpad { ptr, i32 }
          cleanup
  tail call void asm sideeffect "", "rm,~{memory},~{dirflag},~{fpsr},~{flags}"(ptr nonnull @_ZL26gGreaterGreaterGreaterThan) #11, !srcloc !7
  br label %ehcleanup

ehcleanup:                                        ; preds = %lpad6, %lpad2
  %.pn = phi { ptr, i32 } [ %11, %lpad6 ], [ %10, %lpad2 ]
  tail call void asm sideeffect "", "rm,~{memory},~{dirflag},~{fpsr},~{flags}"(ptr nonnull @_ZL19gGreaterGreaterThan) #11, !srcloc !7
  br label %ehcleanup32

lpad20:                                           ; preds = %if.then
  %12 = landingpad { ptr, i32 }
          cleanup
  tail call void asm sideeffect "", "rm,~{memory},~{dirflag},~{fpsr},~{flags}"(ptr nonnull @_ZL26gGreaterGreaterGreaterThan) #11, !srcloc !7
  br label %ehcleanup32

if.else:                                          ; preds = %invoke.cont7
  %13 = load ptr, ptr %ruleSet.i, align 8
  %fIsFractionRuleSet.i = getelementptr inbounds i8, ptr %13, i64 160
  store i8 1, ptr %fIsFractionRuleSet.i, align 8
  br label %if.end31

if.end31:                                         ; preds = %invoke.cont21, %if.then26, %if.else
  ret void

ehcleanup32:                                      ; preds = %lpad20, %ehcleanup
  %.pn6 = phi { ptr, i32 } [ %12, %lpad20 ], [ %.pn, %ehcleanup ]
  tail call void @_ZN6icu_7514NFSubstitutionD2Ev(ptr noundef nonnull align 8 dereferenceable(32) %this) #11
  resume { ptr, i32 } %.pn6
}